; ModuleID = '14/242.c'
source_filename = "14/242.c"
target datalayout = "e-m:e-p270:32:32-p271:32:32-p272:64:64-i64:64-f80:128-n8:16:32:64-S128"
target triple = "x86_64-pc-linux-gnu"

%struct.student = type { i32, i32, i32, i32 }

@.str = private unnamed_addr constant [3 x i8] c"%d\00", align 1
@.str.1 = private unnamed_addr constant [7 x i8] c"%d%d%d\00", align 1
@s = common dso_local global [100 x %struct.student] zeroinitializer, align 16
@.str.2 = private unnamed_addr constant [19 x i8] c"%d %d\0A%d %d\0A%d %d\0A\00", align 1

; Function Attrs: noinline nounwind uwtable
define dso_local i32 @main() #0 {
  %1 = alloca i32, align 4
  %2 = alloca i32, align 4
  %3 = alloca i32, align 4
  %4 = alloca i32, align 4
  %5 = alloca i32, align 4
  %6 = alloca i32, align 4
  store i32 0, i32* %1, align 4
  %7 = call i32 (i8*, ...) @__isoc99_scanf(i8* getelementptr inbounds ([3 x i8], [3 x i8]* @.str, i64 0, i64 0), i32* %2)
  store i32 0, i32* %3, align 4
  br label %8

8:                                                ; preds = %41, %0
  %9 = load i32, i32* %3, align 4
  %10 = load i32, i32* %2, align 4
  %11 = icmp slt i32 %9, %10
  br i1 %11, label %12, label %44

12:                                               ; preds = %8
  %13 = load i32, i32* %3, align 4
  %14 = sext i32 %13 to i64
  %15 = getelementptr inbounds [100 x %struct.student], [100 x %struct.student]* @s, i64 0, i64 %14
  %16 = getelementptr inbounds %struct.student, %struct.student* %15, i32 0, i32 0
  %17 = load i32, i32* %3, align 4
  %18 = sext i32 %17 to i64
  %19 = getelementptr inbounds [100 x %struct.student], [100 x %struct.student]* @s, i64 0, i64 %18
  %20 = getelementptr inbounds %struct.student, %struct.student* %19, i32 0, i32 1
  %21 = load i32, i32* %3, align 4
  %22 = sext i32 %21 to i64
  %23 = getelementptr inbounds [100 x %struct.student], [100 x %struct.student]* @s, i64 0, i64 %22
  %24 = getelementptr inbounds %struct.student, %struct.student* %23, i32 0, i32 2
  %25 = call i32 (i8*, ...) @__isoc99_scanf(i8* getelementptr inbounds ([7 x i8], [7 x i8]* @.str.1, i64 0, i64 0), i32* %16, i32* %20, i32* %24)
  %26 = load i32, i32* %3, align 4
  %27 = sext i32 %26 to i64
  %28 = getelementptr inbounds [100 x %struct.student], [100 x %struct.student]* @s, i64 0, i64 %27
  %29 = getelementptr inbounds %struct.student, %struct.student* %28, i32 0, i32 2
  %30 = load i32, i32* %29, align 8
  %31 = load i32, i32* %3, align 4
  %32 = sext i32 %31 to i64
  %33 = getelementptr inbounds [100 x %struct.student], [100 x %struct.student]* @s, i64 0, i64 %32
  %34 = getelementptr inbounds %struct.student, %struct.student* %33, i32 0, i32 1
  %35 = load i32, i32* %34, align 4
  %36 = add nsw i32 %30, %35
  %37 = load i32, i32* %3, align 4
  %38 = sext i32 %37 to i64
  %39 = getelementptr inbounds [100 x %struct.student], [100 x %struct.student]* @s, i64 0, i64 %38
  %40 = getelementptr inbounds %struct.student, %struct.student* %39, i32 0, i32 3
  store i32 %36, i32* %40, align 4
  br label %41

41:                                               ; preds = %12
  %42 = load i32, i32* %3, align 4
  %43 = add nsw i32 %42, 1
  store i32 %43, i32* %3, align 4
  br label %8

44:                                               ; preds = %8
  store i32 1, i32* %3, align 4
  br label %45

45:                                               ; preds = %116, %44
  %46 = load i32, i32* %3, align 4
  %47 = icmp slt i32 %46, 4
  br i1 %47, label %48, label %119

48:                                               ; preds = %45
  store i32 0, i32* %4, align 4
  br label %49

49:                                               ; preds = %112, %48
  %50 = load i32, i32* %4, align 4
  %51 = load i32, i32* %2, align 4
  %52 = load i32, i32* %3, align 4
  %53 = sub nsw i32 %51, %52
  %54 = icmp slt i32 %50, %53
  br i1 %54, label %55, label %115

55:                                               ; preds = %49
  %56 = load i32, i32* %4, align 4
  %57 = sext i32 %56 to i64
  %58 = getelementptr inbounds [100 x %struct.student], [100 x %struct.student]* @s, i64 0, i64 %57
  %59 = getelementptr inbounds %struct.student, %struct.student* %58, i32 0, i32 3
  %60 = load i32, i32* %59, align 4
  %61 = load i32, i32* %4, align 4
  %62 = add nsw i32 %61, 1
  %63 = sext i32 %62 to i64
  %64 = getelementptr inbounds [100 x %struct.student], [100 x %struct.student]* @s, i64 0, i64 %63
  %65 = getelementptr inbounds %struct.student, %struct.student* %64, i32 0, i32 3
  %66 = load i32, i32* %65, align 4
  %67 = icmp sge i32 %60, %66
  br i1 %67, label %68, label %111

68:                                               ; preds = %55
  %69 = load i32, i32* %4, align 4
  %70 = sext i32 %69 to i64
  %71 = getelementptr inbounds [100 x %struct.student], [100 x %struct.student]* @s, i64 0, i64 %70
  %72 = getelementptr inbounds %struct.student, %struct.student* %71, i32 0, i32 3
  %73 = load i32, i32* %72, align 4
  store i32 %73, i32* %6, align 4
  %74 = load i32, i32* %4, align 4
  %75 = sext i32 %74 to i64
  %76 = getelementptr inbounds [100 x %struct.student], [100 x %struct.student]* @s, i64 0, i64 %75
  %77 = getelementptr inbounds %struct.student, %struct.student* %76, i32 0, i32 0
  %78 = load i32, i32* %77, align 16
  store i32 %78, i32* %5, align 4
  %79 = load i32, i32* %4, align 4
  %80 = add nsw i32 %79, 1
  %81 = sext i32 %80 to i64
  %82 = getelementptr inbounds [100 x %struct.student], [100 x %struct.student]* @s, i64 0, i64 %81
  %83 = getelementptr inbounds %struct.student, %struct.student* %82, i32 0, i32 3
  %84 = load i32, i32* %83, align 4
  %85 = load i32, i32* %4, align 4
  %86 = sext i32 %85 to i64
  %87 = getelementptr inbounds [100 x %struct.student], [100 x %struct.student]* @s, i64 0, i64 %86
  %88 = getelementptr inbounds %struct.student, %struct.student* %87, i32 0, i32 3
  store i32 %84, i32* %88, align 4
  %89 = load i32, i32* %4, align 4
  %90 = add nsw i32 %89, 1
  %91 = sext i32 %90 to i64
  %92 = getelementptr inbounds [100 x %struct.student], [100 x %struct.student]* @s, i64 0, i64 %91
  %93 = getelementptr inbounds %struct.student, %struct.student* %92, i32 0, i32 0
  %94 = load i32, i32* %93, align 16
  %95 = load i32, i32* %4, align 4
  %96 = sext i32 %95 to i64
  %97 = getelementptr inbounds [100 x %struct.student], [100 x %struct.student]* @s, i64 0, i64 %96
  %98 = getelementptr inbounds %struct.student, %struct.student* %97, i32 0, i32 0
  store i32 %94, i32* %98, align 16
  %99 = load i32, i32* %6, align 4
  %100 = load i32, i32* %4, align 4
  %101 = add nsw i32 %100, 1
  %102 = sext i32 %101 to i64
  %103 = getelementptr inbounds [100 x %struct.student], [100 x %struct.student]* @s, i64 0, i64 %102
  %104 = getelementptr inbounds %struct.student, %struct.student* %103, i32 0, i32 3
  store i32 %99, i32* %104, align 4
  %105 = load i32, i32* %5, align 4
  %106 = load i32, i32* %4, align 4
  %107 = add nsw i32 %106, 1
  %108 = sext i32 %107 to i64
  %109 = getelementptr inbounds [100 x %struct.student], [100 x %struct.student]* @s, i64 0, i64 %108
  %110 = getelementptr inbounds %struct.student, %struct.student* %109, i32 0, i32 0
  store i32 %105, i32* %110, align 16
  br label %111

111:                                              ; preds = %68, %55
  br label %112

112:                                              ; preds = %111
  %113 = load i32, i32* %4, align 4
  %114 = add nsw i32 %113, 1
  store i32 %114, i32* %4, align 4
  br label %49

115:                                              ; preds = %49
  br label %116

116:                                              ; preds = %115
  %117 = load i32, i32* %3, align 4
  %118 = add nsw i32 %117, 1
  store i32 %118, i32* %3, align 4
  br label %45

119:                                              ; preds = %45
  %120 = load i32, i32* %2, align 4
  %121 = sub nsw i32 %120, 1
  %122 = sext i32 %121 to i64
  %123 = getelementptr inbounds [100 x %struct.student], [100 x %struct.student]* @s, i64 0, i64 %122
  %124 = getelementptr inbounds %struct.student, %struct.student* %123, i32 0, i32 0
  %125 = load i32, i32* %124, align 16
  %126 = load i32, i32* %2, align 4
  %127 = sub nsw i32 %126, 1
  %128 = sext i32 %127 to i64
  %129 = getelementptr inbounds [100 x %struct.student], [100 x %struct.student]* @s, i64 0, i64 %128
  %130 = getelementptr inbounds %struct.student, %struct.student* %129, i32 0, i32 3
  %131 = load i32, i32* %130, align 4
  %132 = load i32, i32* %2, align 4
  %133 = sub nsw i32 %132, 2
  %134 = sext i32 %133 to i64
  %135 = getelementptr inbounds [100 x %struct.student], [100 x %struct.student]* @s, i64 0, i64 %134
  %136 = getelementptr inbounds %struct.student, %struct.student* %135, i32 0, i32 0
  %137 = load i32, i32* %136, align 16
  %138 = load i32, i32* %2, align 4
  %139 = sub nsw i32 %138, 2
  %140 = sext i32 %139 to i64
  %141 = getelementptr inbounds [100 x %struct.student], [100 x %struct.student]* @s, i64 0, i64 %140
  %142 = getelementptr inbounds %struct.student, %struct.student* %141, i32 0, i32 3
  %143 = load i32, i32* %142, align 4
  %144 = load i32, i32* %2, align 4
  %145 = sub nsw i32 %144, 3
  %146 = sext i32 %145 to i64
  %147 = getelementptr inbounds [100 x %struct.student], [100 x %struct.student]* @s, i64 0, i64 %146
  %148 = getelementptr inbounds %struct.student, %struct.student* %147, i32 0, i32 0
  %149 = load i32, i32* %148, align 16
  %150 = load i32, i32* %2, align 4
  %151 = sub nsw i32 %150, 3
  %152 = sext i32 %151 to i64
  %153 = getelementptr inbounds [100 x %struct.student], [100 x %struct.student]* @s, i64 0, i64 %152
  %154 = getelementptr inbounds %struct.student, %struct.student* %153, i32 0, i32 3
  %155 = load i32, i32* %154, align 4
  %156 = call i32 (i8*, ...) @printf(i8* getelementptr inbounds ([19 x i8], [19 x i8]* @.str.2, i64 0, i64 0), i32 %125, i32 %131, i32 %137, i32 %143, i32 %149, i32 %155)
  ret i32 0
}

declare dso_local i32 @__isoc99_scanf(i8*, ...) #1

declare dso_local i32 @printf(i8*, ...) #1


!llvm.module.flags = !{!0}
!llvm.ident = !{!1}

!0 = !{i32 1, !"wchar_size", i32 4}
!1 = !{!"clang version 10.0.0-4ubuntu1 "}
